; Function Attrs: mustprogress null_pointer_is_valid sspstrong uwtable
define void @_ZN19WiresharkMainWindow19onFilterPreferencesEv(ptr noundef align 8 dereferenceable_or_null(560) %0) local_unnamed_addr #0 align 2 personality ptr @__gxx_personality_v0 {
  %2 = alloca %class.QString, align 8
  call void @_ZN10PrefsModel12typeToStringEi(ptr dead_on_unwind nonnull writable sret(%class.QString) align 8 %2, i32 noundef 263)
  %3 = load ptr, ptr %0, align 8
  %4 = getelementptr inbounds nuw i8, ptr %3, i64 432
  %5 = load ptr, ptr %4, align 8
  invoke void %5(ptr noundef align 8 dereferenceable_or_null(560) %0, ptr noundef nonnull %2)
          to label %6 unwind label %11

6:                                                ; preds = %1
  %7 = load ptr, ptr %2, align 8
  %.not.i.i.i = icmp eq ptr %7, null
  br i1 %.not.i.i.i, label %_ZN7QStringD2Ev.exit, label %_ZN17QArrayDataPointerIDsE5derefEv.exit.i.i

_ZN17QArrayDataPointerIDsE5derefEv.exit.i.i:      ; preds = %6
  %8 = atomicrmw sub ptr %7, i32 1 seq_cst, align 4
  %.not.i.i = icmp eq i32 %8, 1
  br i1 %.not.i.i, label %9, label %_ZN7QStringD2Ev.exit

9:                                                ; preds = %_ZN17QArrayDataPointerIDsE5derefEv.exit.i.i
  %10 = load ptr, ptr %2, align 8
  call void @_ZN10QArrayData10deallocateEPS_xx(ptr noundef %10, i64 noundef 2, i64 noundef 8) #25
  br label %_ZN7QStringD2Ev.exit

_ZN7QStringD2Ev.exit:                             ; preds = %6, %_ZN17QArrayDataPointerIDsE5derefEv.exit.i.i, %9
  ret void

11:                                               ; preds = %1
  %12 = landingpad { ptr, i32 }
          cleanup
  %13 = load ptr, ptr %2, align 8
  %.not.i.i.i2 = icmp eq ptr %13, null
  br i1 %.not.i.i.i2, label %_ZN7QStringD2Ev.exit5, label %_ZN17QArrayDataPointerIDsE5derefEv.exit.i.i3

_ZN17QArrayDataPointerIDsE5derefEv.exit.i.i3:     ; preds = %11
  %14 = atomicrmw sub ptr %13, i32 1 seq_cst, align 4
  %.not.i.i4 = icmp eq i32 %14, 1
  br i1 %.not.i.i4, label %15, label %_ZN7QStringD2Ev.exit5

15:                                               ; preds = %_ZN17QArrayDataPointerIDsE5derefEv.exit.i.i3
  %16 = load ptr, ptr %2, align 8
  call void @_ZN10QArrayData10deallocateEPS_xx(ptr noundef %16, i64 noundef 2, i64 noundef 8) #25
  br label %_ZN7QStringD2Ev.exit5

_ZN7QStringD2Ev.exit5:                            ; preds = %11, %_ZN17QArrayDataPointerIDsE5derefEv.exit.i.i3, %15
  resume { ptr, i32 } %12
}